; Function Attrs: mustprogress uwtable
define void @_ZNK6casadi2MX3getERS0_bRKNS_5SliceERKNS_6MatrixIxEE(ptr noundef nonnull align 8 dereferenceable(8) %0, ptr noundef nonnull align 8 dereferenceable(8) %1, i1 noundef zeroext %2, ptr noundef nonnull align 8 dereferenceable(24) %3, ptr noundef nonnull align 8 dereferenceable(40) %4) local_unnamed_addr #3 align 2 personality ptr @__gxx_personality_v0 {
  %6 = alloca %"class.casadi::Matrix.38", align 8
  %7 = alloca %"class.std::vector", align 8
  %8 = tail call noundef ptr @_ZNK6casadi12SharedObjectptEv(ptr noundef nonnull align 8 dereferenceable(8) %0)
  %9 = getelementptr inbounds i8, ptr %8, i64 56
  %10 = tail call noundef i64 @_ZNK6casadi8Sparsity5size1Ev(ptr noundef nonnull align 8 dereferenceable(8) %9)
  call void @_ZNK6casadi5Slice3allExb(ptr dead_on_unwind nonnull writable sret(%"class.std::vector") align 8 %7, ptr noundef nonnull align 8 dereferenceable(24) %3, i64 noundef %10, i1 noundef zeroext %2)
  invoke void @_ZN6casadi6MatrixIxEC1ERKSt6vectorIxSaIxEE(ptr noundef nonnull align 8 dereferenceable(40) %6, ptr noundef nonnull align 8 dereferenceable(24) %7)
          to label %11 unwind label %19

11:                                               ; preds = %5
  invoke void @_ZNK6casadi2MX3getERS0_bRKNS_6MatrixIxEES5_(ptr noundef nonnull align 8 dereferenceable(8) %0, ptr noundef nonnull align 8 dereferenceable(8) %1, i1 noundef zeroext %2, ptr noundef nonnull align 8 dereferenceable(40) %6, ptr noundef nonnull align 8 dereferenceable(40) %4)
          to label %12 unwind label %21

12:                                               ; preds = %11
  %13 = getelementptr inbounds i8, ptr %6, i64 16
  %14 = load ptr, ptr %13, align 8
  %.not.i.i.i.i = icmp eq ptr %14, null
  br i1 %.not.i.i.i.i, label %_ZN6casadi6MatrixIxED2Ev.exit, label %15

15:                                               ; preds = %12
  call void @_ZdlPv(ptr noundef nonnull %14) #30
  br label %_ZN6casadi6MatrixIxED2Ev.exit

_ZN6casadi6MatrixIxED2Ev.exit:                    ; preds = %12, %15
  %16 = getelementptr inbounds i8, ptr %6, i64 8
  call void @_ZN6casadi12SharedObjectD2Ev(ptr noundef nonnull align 8 dereferenceable(8) %16) #27
  %17 = load ptr, ptr %7, align 8
  %.not.i.i.i = icmp eq ptr %17, null
  br i1 %.not.i.i.i, label %_ZNSt6vectorIxSaIxEED2Ev.exit, label %18

18:                                               ; preds = %_ZN6casadi6MatrixIxED2Ev.exit
  call void @_ZdlPv(ptr noundef nonnull %17) #30
  br label %_ZNSt6vectorIxSaIxEED2Ev.exit

_ZNSt6vectorIxSaIxEED2Ev.exit:                    ; preds = %_ZN6casadi6MatrixIxED2Ev.exit, %18
  ret void

19:                                               ; preds = %5
  %20 = landingpad { ptr, i32 }
          cleanup
  br label %23

21:                                               ; preds = %11
  %22 = landingpad { ptr, i32 }
          cleanup
  call void @_ZN6casadi6MatrixIxED2Ev(ptr noundef nonnull align 8 dereferenceable(40) %6) #27
  br label %23

23:                                               ; preds = %21, %19
  %.pn = phi { ptr, i32 } [ %22, %21 ], [ %20, %19 ]
  %24 = load ptr, ptr %7, align 8
  %.not.i.i.i9 = icmp eq ptr %24, null
  br i1 %.not.i.i.i9, label %_ZNSt6vectorIxSaIxEED2Ev.exit10, label %25

25:                                               ; preds = %23
  call void @_ZdlPv(ptr noundef nonnull %24) #30
  br label %_ZNSt6vectorIxSaIxEED2Ev.exit10

_ZNSt6vectorIxSaIxEED2Ev.exit10:                  ; preds = %23, %25
  resume { ptr, i32 } %.pn
}